; Function Attrs: null_pointer_is_valid sspstrong uwtable
define zeroext i1 @try_conversation_dissector_by_id(i32 noundef %0, i32 noundef %1, ptr noundef %2, ptr noundef %3, ptr noundef %4, ptr noundef %5) local_unnamed_addr #0 {
  %7 = alloca [2 x %struct.conversation_element], align 16
  %8 = getelementptr inbounds nuw i8, ptr %3, i64 20
  %9 = load i32, ptr %8, align 4
  call void @llvm.lifetime.start.p0(i64 64, ptr nonnull %7) #15
  call void @llvm.memset.p0.i64(ptr noundef nonnull align 16 dereferenceable(64) %7, i8 0, i64 64, i1 false)
  store i32 4, ptr %7, align 16
  %10 = getelementptr inbounds nuw i8, ptr %7, i64 8
  store i32 %1, ptr %10, align 8
  %11 = getelementptr inbounds nuw i8, ptr %7, i64 40
  store i32 %0, ptr %11, align 8
  %12 = load ptr, ptr @conversation_hashtable_id, align 8
  %13 = call ptr @wmem_map_lookup(ptr noundef %12, ptr noundef nonnull %7)
  %.not.i.i = icmp eq ptr %13, null
  br i1 %.not.i.i, label %find_conversation_by_id.exit.thread, label %14

14:                                               ; preds = %6
  %15 = getelementptr inbounds nuw i8, ptr %13, i64 28
  %16 = load i32, ptr %15, align 4
  %.not33.i.i = icmp ugt i32 %16, %9
  br i1 %.not33.i.i, label %find_conversation_by_id.exit.thread, label %17

17:                                               ; preds = %14
  %18 = getelementptr inbounds nuw i8, ptr %13, i64 8
  %19 = load ptr, ptr %18, align 8
  %.not34.i.i = icmp eq ptr %19, null
  br i1 %.not34.i.i, label %23, label %20

20:                                               ; preds = %17
  %21 = getelementptr inbounds nuw i8, ptr %19, i64 28
  %22 = load i32, ptr %21, align 4
  %.not35.i.i = icmp ugt i32 %22, %9
  br i1 %.not35.i.i, label %23, label %38

23:                                               ; preds = %20, %17
  %24 = getelementptr inbounds nuw i8, ptr %13, i64 16
  %25 = load ptr, ptr %24, align 8
  %.not36.i.i = icmp eq ptr %25, null
  br i1 %.not36.i.i, label %.preheader, label %26

26:                                               ; preds = %23
  %27 = getelementptr inbounds nuw i8, ptr %25, i64 28
  %28 = load i32, ptr %27, align 4
  %.not37.i.i = icmp ugt i32 %28, %9
  %spec.select.i.i = select i1 %.not37.i.i, ptr %13, ptr %25
  br label %.preheader

.preheader:                                       ; preds = %26, %23
  %.02644.i.i.ph = phi ptr [ %spec.select.i.i, %26 ], [ %13, %23 ]
  br label %29

29:                                               ; preds = %.preheader, %32
  %.245.i.i = phi ptr [ %spec.select41.i.i, %32 ], [ %.02644.i.i.ph, %.preheader ]
  %.02644.i.i = phi ptr [ %36, %32 ], [ %.02644.i.i.ph, %.preheader ]
  %30 = getelementptr inbounds nuw i8, ptr %.02644.i.i, i64 28
  %31 = load i32, ptr %30, align 4
  %.not39.i.i = icmp ugt i32 %31, %9
  br i1 %.not39.i.i, label %.critedge.i.i, label %32

32:                                               ; preds = %29
  %33 = getelementptr inbounds nuw i8, ptr %.245.i.i, i64 28
  %34 = load i32, ptr %33, align 4
  %35 = icmp ugt i32 %31, %34
  %spec.select41.i.i = select i1 %35, ptr %.02644.i.i, ptr %.245.i.i
  %36 = load ptr, ptr %.02644.i.i, align 8
  %.not38.i.i = icmp eq ptr %36, null
  br i1 %.not38.i.i, label %.critedge.i.i, label %29, !llvm.loop !13

.critedge.i.i:                                    ; preds = %32, %29
  %.2.lcssa.i.i = phi ptr [ %.245.i.i, %29 ], [ %spec.select41.i.i, %32 ]
  %.not40.i.i = icmp eq ptr %.2.lcssa.i.i, null
  br i1 %.not40.i.i, label %find_conversation_by_id.exit.thread, label %37

37:                                               ; preds = %.critedge.i.i
  store ptr %.2.lcssa.i.i, ptr %24, align 8
  br label %38

find_conversation_by_id.exit.thread:              ; preds = %.critedge.i.i, %14, %6
  call void @llvm.lifetime.end.p0(i64 64, ptr nonnull %7) #15
  br label %47

38:                                               ; preds = %37, %20
  %.027.i.i = phi ptr [ %19, %20 ], [ %.2.lcssa.i.i, %37 ]
  call void @llvm.lifetime.end.p0(i64 64, ptr nonnull %7) #15
  %39 = getelementptr inbounds nuw i8, ptr %.027.i.i, i64 48
  %40 = load ptr, ptr %39, align 8
  %.not17 = icmp eq ptr %40, null
  br i1 %.not17, label %47, label %41

41:                                               ; preds = %38
  %42 = load i32, ptr %8, align 4
  %43 = call ptr @wmem_tree_lookup32_le(ptr noundef nonnull %40, i32 noundef %42)
  %44 = icmp eq ptr %43, null
  br i1 %44, label %47, label %45

45:                                               ; preds = %41
  %46 = call i32 @call_dissector_only(ptr noundef nonnull %43, ptr noundef %2, ptr noundef %3, ptr noundef %4, ptr noundef %5)
  %.not18 = icmp ne i32 %46, 0
  br label %47

47:                                               ; preds = %find_conversation_by_id.exit.thread, %41, %45, %38
  %.0 = phi i1 [ false, %38 ], [ false, %41 ], [ %.not18, %45 ], [ false, %find_conversation_by_id.exit.thread ]
  ret i1 %.0
}